
poll_c.elf:     file format elf32-littleriscv


Disassembly of section .text:

00000000 <_start>:
   0:	fe010113          	addi	sp,sp,-32
   4:	00812e23          	sw	s0,28(sp)
   8:	02010413          	addi	s0,sp,32
   c:	fe042623          	sw	zero,-20(s0)
  10:	fe042423          	sw	zero,-24(s0)
  14:	0300006f          	j	44 <_start+0x44>
  18:	fe842783          	lw	a5,-24(s0)
  1c:	fef42223          	sw	a5,-28(s0)
  20:	fe442783          	lw	a5,-28(s0)
  24:	0007a783          	lw	a5,0(a5)
  28:	00078863          	beqz	a5,38 <_start+0x38>
  2c:	00100793          	li	a5,1
  30:	fef42623          	sw	a5,-20(s0)
  34:	01c0006f          	j	50 <_start+0x50>
  38:	fe842783          	lw	a5,-24(s0)
  3c:	00478793          	addi	a5,a5,4
  40:	fef42423          	sw	a5,-24(s0)
  44:	fe842703          	lw	a4,-24(s0)
  48:	00a00793          	li	a5,10
  4c:	fce7d6e3          	bge	a5,a4,18 <_start+0x18>
  50:	fec42783          	lw	a5,-20(s0)
  54:	00079463          	bnez	a5,5c <_start+0x5c>
  58:	0000006f          	j	58 <_start+0x58>
  5c:	00800793          	li	a5,8
  60:	04800713          	li	a4,72
  64:	00e78023          	sb	a4,0(a5)
  68:	00800793          	li	a5,8
  6c:	06500713          	li	a4,101
  70:	00e78023          	sb	a4,0(a5)
  74:	00800793          	li	a5,8
  78:	06c00713          	li	a4,108
  7c:	00e78023          	sb	a4,0(a5)
  80:	00800793          	li	a5,8
  84:	06c00713          	li	a4,108
  88:	00e78023          	sb	a4,0(a5)
  8c:	00800793          	li	a5,8
  90:	06f00713          	li	a4,111
  94:	00e78023          	sb	a4,0(a5)
  98:	00800793          	li	a5,8
  9c:	05700713          	li	a4,87
  a0:	00e78023          	sb	a4,0(a5)
  a4:	00800793          	li	a5,8
  a8:	06f00713          	li	a4,111
  ac:	00e78023          	sb	a4,0(a5)
  b0:	00800793          	li	a5,8
  b4:	07200713          	li	a4,114
  b8:	00e78023          	sb	a4,0(a5)
  bc:	00800793          	li	a5,8
  c0:	06c00713          	li	a4,108
  c4:	00e78023          	sb	a4,0(a5)
  c8:	00800793          	li	a5,8
  cc:	06400713          	li	a4,100
  d0:	00e78023          	sb	a4,0(a5)
  d4:	f89ff06f          	j	5c <_start+0x5c>
